; Function Attrs: mustprogress nofree norecurse nosync nounwind willreturn memory(argmem: read) uwtable
define hidden i64 @PyExpat_testingAccountingGetCountBytesDirect(ptr noundef readonly %0) local_unnamed_addr #5 {
  %.not = icmp eq ptr %0, null
  br i1 %.not, label %5, label %2

2:                                                ; preds = %1
  %3 = getelementptr inbounds nuw i8, ptr %0, i64 944
  %4 = load i64, ptr %3, align 8, !tbaa !216
  br label %5

5:                                                ; preds = %1, %2
  %.0 = phi i64 [ %4, %2 ], [ 0, %1 ]
  ret i64 %.0
}